; Function Attrs: nofree noinline norecurse nosync nounwind memory(argmem: readwrite) uwtable
define internal fastcc void @put_8tap_1d_v_c(ptr noundef writeonly captures(none) %0, i64 noundef %1, ptr noundef readonly captures(none) %2, i64 noundef %3, i32 noundef range(i32 4, 65) %4, i32 noundef %5, ptr noundef readonly captures(none) %6) unnamed_addr #8 {
  %8 = lshr i64 %3, 1
  %9 = lshr i64 %1, 1
  %.idx.i = mul i64 %8, -6
  %10 = getelementptr inbounds nuw i8, ptr %6, i64 2
  %11 = and i64 %3, -2
  %12 = getelementptr inbounds nuw i8, ptr %6, i64 4
  %13 = getelementptr inbounds nuw i8, ptr %6, i64 6
  %14 = getelementptr inbounds nuw i8, ptr %6, i64 8
  %15 = getelementptr inbounds nuw i8, ptr %6, i64 10
  %.idx87.i = shl nuw nsw i64 %8, 2
  %16 = getelementptr inbounds nuw i8, ptr %6, i64 12
  %.idx88.i = mul nuw nsw i64 %8, 6
  %17 = getelementptr inbounds nuw i8, ptr %6, i64 14
  %.idx89.i = shl nsw i64 %8, 3
  %wide.trip.count = zext nneg i32 %4 to i64
  br label %18

18:                                               ; preds = %88, %7
  %.084.i = phi i32 [ %5, %7 ], [ %90, %88 ]
  %.083.i = phi ptr [ %0, %7 ], [ %89, %88 ]
  %.082.i = phi ptr [ %2, %7 ], [ %20, %88 ]
  %19 = getelementptr i8, ptr %.082.i, i64 %.idx.i
  %20 = getelementptr inbounds nuw i16, ptr %.082.i, i64 %8
  %21 = getelementptr inbounds nuw i8, ptr %.082.i, i64 %.idx87.i
  %22 = getelementptr inbounds nuw i8, ptr %.082.i, i64 %.idx88.i
  %23 = getelementptr inbounds nuw i8, ptr %.082.i, i64 %.idx89.i
  br label %24

24:                                               ; preds = %18, %24
  %indvars.iv = phi i64 [ 0, %18 ], [ %indvars.iv.next, %24 ]
  %25 = load i16, ptr %6, align 2, !tbaa !8
  %26 = sext i16 %25 to i32
  %27 = getelementptr i16, ptr %19, i64 %indvars.iv
  %28 = load i16, ptr %27, align 2, !tbaa !8
  %29 = zext i16 %28 to i32
  %30 = mul nsw i32 %29, %26
  %31 = load i16, ptr %10, align 2, !tbaa !8
  %32 = sext i16 %31 to i32
  %33 = sub i64 %indvars.iv, %11
  %34 = getelementptr inbounds i16, ptr %.082.i, i64 %33
  %35 = load i16, ptr %34, align 2, !tbaa !8
  %36 = zext i16 %35 to i32
  %37 = mul nsw i32 %36, %32
  %38 = load i16, ptr %12, align 2, !tbaa !8
  %39 = sext i16 %38 to i32
  %40 = sub nsw i64 %indvars.iv, %8
  %41 = getelementptr inbounds i16, ptr %.082.i, i64 %40
  %42 = load i16, ptr %41, align 2, !tbaa !8
  %43 = zext i16 %42 to i32
  %44 = mul nsw i32 %43, %39
  %45 = load i16, ptr %13, align 2, !tbaa !8
  %46 = sext i16 %45 to i32
  %47 = getelementptr inbounds nuw i16, ptr %.082.i, i64 %indvars.iv
  %48 = load i16, ptr %47, align 2, !tbaa !8
  %49 = zext i16 %48 to i32
  %50 = mul nsw i32 %49, %46
  %51 = load i16, ptr %14, align 2, !tbaa !8
  %52 = sext i16 %51 to i32
  %53 = getelementptr inbounds nuw i16, ptr %20, i64 %indvars.iv
  %54 = load i16, ptr %53, align 2, !tbaa !8
  %55 = zext i16 %54 to i32
  %56 = mul nsw i32 %55, %52
  %57 = load i16, ptr %15, align 2, !tbaa !8
  %58 = sext i16 %57 to i32
  %59 = getelementptr inbounds nuw i16, ptr %21, i64 %indvars.iv
  %60 = load i16, ptr %59, align 2, !tbaa !8
  %61 = zext i16 %60 to i32
  %62 = mul nsw i32 %61, %58
  %63 = load i16, ptr %16, align 2, !tbaa !8
  %64 = sext i16 %63 to i32
  %65 = getelementptr inbounds nuw i16, ptr %22, i64 %indvars.iv
  %66 = load i16, ptr %65, align 2, !tbaa !8
  %67 = zext i16 %66 to i32
  %68 = mul nsw i32 %67, %64
  %69 = load i16, ptr %17, align 2, !tbaa !8
  %70 = sext i16 %69 to i32
  %71 = getelementptr inbounds nuw i16, ptr %23, i64 %indvars.iv
  %72 = load i16, ptr %71, align 2, !tbaa !8
  %73 = zext i16 %72 to i32
  %74 = mul nsw i32 %73, %70
  %75 = add nsw i32 %30, 64
  %76 = add i32 %75, %37
  %77 = add i32 %76, %44
  %78 = add i32 %77, %50
  %79 = add i32 %78, %56
  %80 = add i32 %79, %62
  %81 = add i32 %80, %68
  %82 = add i32 %81, %74
  %83 = ashr i32 %82, 7
  %84 = tail call i32 @llvm.smax.i32(i32 %83, i32 0)
  %85 = tail call i32 @llvm.umin.i32(i32 %84, i32 4095)
  %86 = trunc nuw nsw i32 %85 to i16
  %87 = getelementptr inbounds nuw i16, ptr %.083.i, i64 %indvars.iv
  store i16 %86, ptr %87, align 2, !tbaa !8
  %indvars.iv.next = add nuw nsw i64 %indvars.iv, 1
  %exitcond.not = icmp eq i64 %indvars.iv.next, %wide.trip.count
  br i1 %exitcond.not, label %88, label %24, !llvm.loop !82

88:                                               ; preds = %24
  %89 = getelementptr inbounds nuw i16, ptr %.083.i, i64 %9
  %90 = add nsw i32 %.084.i, -1
  %.not.i = icmp eq i32 %90, 0
  br i1 %.not.i, label %do_8tap_1d_c.exit, label %18, !llvm.loop !83

do_8tap_1d_c.exit:                                ; preds = %88
  ret void
}